; Function Attrs: mustprogress uwtable
define void @_ZN3gmx9BiasState9broadcastEPK9t_commrec(ptr noundef nonnull align 8 dereferenceable(240) %0, ptr noundef readonly captures(none) %1) local_unnamed_addr #3 align 2 {
  %3 = getelementptr inbounds nuw i8, ptr %1, i64 32
  %4 = load ptr, ptr %3, align 8, !tbaa !291
  tail call void @_Z9gmx_bcastmPvP10tmpi_comm_(i64 noundef 40, ptr noundef nonnull %0, ptr noundef %4)
  %5 = getelementptr inbounds nuw i8, ptr %0, i64 40
  %6 = getelementptr inbounds nuw i8, ptr %0, i64 48
  %7 = load ptr, ptr %6, align 8, !tbaa !4
  %8 = load ptr, ptr %5, align 8, !tbaa !10
  %9 = ptrtoint ptr %7 to i64
  %10 = ptrtoint ptr %8 to i64
  %11 = sub i64 %9, %10
  %12 = load ptr, ptr %3, align 8, !tbaa !291
  tail call void @_Z9gmx_bcastmPvP10tmpi_comm_(i64 noundef %11, ptr noundef %8, ptr noundef %12)
  %13 = getelementptr inbounds nuw i8, ptr %0, i64 64
  %14 = getelementptr inbounds nuw i8, ptr %0, i64 72
  %15 = load ptr, ptr %14, align 8, !tbaa !86
  %16 = load ptr, ptr %13, align 8, !tbaa !89
  %17 = ptrtoint ptr %15 to i64
  %18 = ptrtoint ptr %16 to i64
  %19 = sub i64 %17, %18
  %20 = load ptr, ptr %3, align 8, !tbaa !291
  tail call void @_Z9gmx_bcastmPvP10tmpi_comm_(i64 noundef %19, ptr noundef %16, ptr noundef %20)
  %21 = getelementptr inbounds nuw i8, ptr %0, i64 88
  %22 = load ptr, ptr %3, align 8, !tbaa !291
  tail call void @_Z9gmx_bcastmPvP10tmpi_comm_(i64 noundef 64, ptr noundef nonnull %21, ptr noundef %22)
  ret void
}